; Function Attrs: mustprogress noreturn uwtable
define internal fastcc void @"_ZZN19OpenColorIO_v2_4dev15LocalFileFormat23ValidateParametricCurveEttPKiRKNSt7__cxx1112basic_stringIcSt11char_traitsIcESaIcEEEENK3$_0clESA_"(ptr noundef nonnull align 8 dereferenceable(48) %this, ptr noundef nonnull align 8 dereferenceable(32) %msg) unnamed_addr #10 align 2 personality ptr @__gxx_personality_v0 {
entry:
  %oss = alloca %"class.std::__cxx11::basic_ostringstream", align 8
  %ref.tmp = alloca %"class.std::__cxx11::basic_string", align 8
  call void @_ZNSt7__cxx1119basic_ostringstreamIcSt11char_traitsIcESaIcEEC1Ev(ptr noundef nonnull align 8 dereferenceable(112) %oss)
  %call = invoke noundef nonnull align 8 dereferenceable(8) ptr @_ZStlsISt11char_traitsIcEERSt13basic_ostreamIcT_ES5_PKc(ptr noundef nonnull align 8 dereferenceable(8) %oss, ptr noundef nonnull @.str.43)
          to label %for.cond.preheader unwind label %lpad.loopexit.split-lp

for.cond.preheader:                               ; preds = %entry
  %0 = load i16, ptr %this, align 8
  %cmp8.not = icmp eq i16 %0, 0
  br i1 %cmp8.not, label %for.end, label %for.body.lr.ph

for.body.lr.ph:                                   ; preds = %for.cond.preheader
  %1 = getelementptr inbounds i8, ptr %this, i64 8
  br label %for.body

for.body:                                         ; preds = %for.body.lr.ph, %for.inc
  %indvars.iv = phi i64 [ 0, %for.body.lr.ph ], [ %indvars.iv.next, %for.inc ]
  %cmp2.not = icmp eq i64 %indvars.iv, 0
  br i1 %cmp2.not, label %if.end, label %if.then

if.then:                                          ; preds = %for.body
  %call4 = invoke noundef nonnull align 8 dereferenceable(8) ptr @_ZStlsISt11char_traitsIcEERSt13basic_ostreamIcT_ES5_PKc(ptr noundef nonnull align 8 dereferenceable(8) %oss, ptr noundef nonnull @.str.44)
          to label %if.end unwind label %lpad.loopexit

lpad.loopexit:                                    ; preds = %if.then, %if.end
  %lpad.loopexit5 = landingpad { ptr, i32 }
          cleanup
  br label %ehcleanup

lpad.loopexit.split-lp:                           ; preds = %entry, %for.end, %invoke.cont8, %invoke.cont10
  %lpad.loopexit.split-lp6 = landingpad { ptr, i32 }
          cleanup
  br label %ehcleanup

if.end:                                           ; preds = %if.then, %for.body
  %2 = load ptr, ptr %1, align 8
  %arrayidx = getelementptr inbounds i32, ptr %2, i64 %indvars.iv
  %3 = load i32, ptr %arrayidx, align 4
  %conv.i = sitofp i32 %3 to double
  %div.i = fmul double %conv.i, 0x3EF0000000000000
  %conv1.i = fptrunc double %div.i to float
  %call7 = invoke noundef nonnull align 8 dereferenceable(8) ptr @_ZNSolsEf(ptr noundef nonnull align 8 dereferenceable(8) %oss, float noundef %conv1.i)
          to label %for.inc unwind label %lpad.loopexit

for.inc:                                          ; preds = %if.end
  %indvars.iv.next = add nuw nsw i64 %indvars.iv, 1
  %4 = load i16, ptr %this, align 8
  %5 = zext i16 %4 to i64
  %cmp = icmp ult i64 %indvars.iv.next, %5
  br i1 %cmp, label %for.body, label %for.end, !llvm.loop !22

for.end:                                          ; preds = %for.inc, %for.cond.preheader
  %call9 = invoke noundef nonnull align 8 dereferenceable(8) ptr @_ZStlsISt11char_traitsIcEERSt13basic_ostreamIcT_ES5_PKc(ptr noundef nonnull align 8 dereferenceable(8) %oss, ptr noundef nonnull @.str.45)
          to label %invoke.cont8 unwind label %lpad.loopexit.split-lp

invoke.cont8:                                     ; preds = %for.end
  %call11 = invoke noundef nonnull align 8 dereferenceable(8) ptr @_ZStlsIcSt11char_traitsIcESaIcEERSt13basic_ostreamIT_T0_ES7_RKNSt7__cxx1112basic_stringIS4_S5_T1_EE(ptr noundef nonnull align 8 dereferenceable(8) %call9, ptr noundef nonnull align 8 dereferenceable(32) %msg)
          to label %invoke.cont10 unwind label %lpad.loopexit.split-lp

invoke.cont10:                                    ; preds = %invoke.cont8
  invoke void @_ZNKSt7__cxx1119basic_ostringstreamIcSt11char_traitsIcESaIcEE3strEv(ptr nonnull sret(%"class.std::__cxx11::basic_string") align 8 %ref.tmp, ptr noundef nonnull align 8 dereferenceable(112) %oss)
          to label %invoke.cont12 unwind label %lpad.loopexit.split-lp

invoke.cont12:                                    ; preds = %invoke.cont10
  %6 = getelementptr inbounds i8, ptr %this, i64 16
  invoke void @_ZN19OpenColorIO_v2_4dev15LocalFileFormat17ThrowErrorMessageERKNSt7__cxx1112basic_stringIcSt11char_traitsIcESaIcEEES8_(ptr noundef nonnull align 8 dereferenceable(32) %ref.tmp, ptr noundef nonnull align 8 dereferenceable(32) %6)
          to label %invoke.cont14.unreachable unwind label %lpad13

invoke.cont14.unreachable:                        ; preds = %invoke.cont12
  unreachable

lpad13:                                           ; preds = %invoke.cont12
  %7 = landingpad { ptr, i32 }
          cleanup
  call void @_ZNSt7__cxx1112basic_stringIcSt11char_traitsIcESaIcEED1Ev(ptr noundef nonnull align 8 dereferenceable(32) %ref.tmp) #28
  br label %ehcleanup

ehcleanup:                                        ; preds = %lpad.loopexit, %lpad.loopexit.split-lp, %lpad13
  %.pn = phi { ptr, i32 } [ %7, %lpad13 ], [ %lpad.loopexit5, %lpad.loopexit ], [ %lpad.loopexit.split-lp6, %lpad.loopexit.split-lp ]
  call void @_ZNSt7__cxx1119basic_ostringstreamIcSt11char_traitsIcESaIcEED1Ev(ptr noundef nonnull align 8 dereferenceable(112) %oss) #28
  resume { ptr, i32 } %.pn
}